target datalayout = "e-m:e-p270:32:32-p271:32:32-p272:64:64-i64:64-i128:128-f80:128-n8:16:32:64-S128"
target triple = "x86_64-pc-linux-gnu"

; Function Attrs: mustprogress nounwind uwtable
define noundef signext i8 @_ZN6icu_7711ICU_Utility13isUnprintableEi(i32 noundef %0) #0 align 2 {
  %2 = alloca i32, align 4
  store i32 %0, ptr %2, align 4, !tbaa !14
  %3 = load i32, ptr %2, align 4, !tbaa !14
  %4 = icmp sge i32 %3, 32
  br i1 %4, label %5, label %8

5:                                                ; preds = %1
  %6 = load i32, ptr %2, align 4, !tbaa !14
  %7 = icmp sle i32 %6, 126
  br label %8

8:                                                ; preds = %5, %1
  %9 = phi i1 [ false, %1 ], [ %7, %5 ]
  %10 = xor i1 %9, true
  %11 = zext i1 %10 to i8
  ret i8 %11
}

; Function Attrs: mustprogress uwtable
define noundef signext i8 @_ZN6icu_7711ICU_Utility17escapeUnprintableERNS_13UnicodeStringEi(ptr noundef nonnull align 8 dereferenceable(64) %0, i32 noundef %1) #1 align 2 {
  %3 = alloca i8, align 1
  %4 = alloca ptr, align 8
  %5 = alloca i32, align 4
  store ptr %0, ptr %4, align 8, !tbaa !23
  store i32 %1, ptr %5, align 4, !tbaa !14
  %6 = load i32, ptr %5, align 4, !tbaa !14
  %7 = call noundef signext i8 @_ZN6icu_7711ICU_Utility13isUnprintableEi(i32 noundef %6)
  %8 = icmp ne i8 %7, 0
  br i1 %8, label %9, label %13

9:                                                ; preds = %2
  %10 = load ptr, ptr %4, align 8, !tbaa !23
  %11 = load i32, ptr %5, align 4, !tbaa !14
  %12 = call noundef nonnull align 8 dereferenceable(64) ptr @_ZN6icu_7711ICU_Utility6escapeERNS_13UnicodeStringEi(ptr noundef nonnull align 8 dereferenceable(64) %10, i32 noundef %11)
  store i8 1, ptr %3, align 1
  br label %14

13:                                               ; preds = %2
  store i8 0, ptr %3, align 1
  br label %14

14:                                               ; preds = %13, %9
  %15 = load i8, ptr %3, align 1
  ret i8 %15
}