; Function Attrs: mustprogress uwtable
define noundef signext range(i8 0, 2) i8 @_ZN6icu_7711ICU_Utility17escapeUnprintableERNS_13UnicodeStringEi(ptr noundef nonnull align 8 dereferenceable(64) %0, i32 noundef %1) local_unnamed_addr #1 align 2 {
  %3 = add i32 %1, -32
  %4 = icmp ult i32 %3, 95
  br i1 %4, label %7, label %5

5:                                                ; preds = %2
  %6 = tail call noundef nonnull align 8 dereferenceable(64) ptr @_ZN6icu_7711ICU_Utility6escapeERNS_13UnicodeStringEi(ptr noundef nonnull align 8 dereferenceable(64) %0, i32 noundef %1)
  br label %7

7:                                                ; preds = %2, %5
  %.0 = phi i8 [ 1, %5 ], [ 0, %2 ]
  ret i8 %.0
}